(iTTChars
Dwarf
p0
(dp1
S'wadds'
p2
I4
sS'ch'
p3
I3
sS'co'
p4
I14
sS'name'
p5
S'Bimber'
p6
sS'gold'
p7
S'5'
p8
sS'level'
p9
I1
sS'iq'
p10
I12
sS'items'
p11
S''
p12
sS'weapon'
p13
S'Falchion'
p14
sS'lk'
p15
I17
sS'st'
p16
I26
sS'armor'
p17
S'Helm'
p18
sS'race'
p19
S'Dwarf'
p20
sS'words'
p21
S'Hi Ho!'
p22
sS'wdice'
p23
I4
sS'AP'
p24
I74
sS'adds'
p25
I23
sS'dx'
p26
I16
sS'armortakes'
p27
I3
sb.